; Function Attrs: mustprogress uwtable
define dso_local void @_ZN11btConeShapeC2Eff(ptr noundef nonnull align 8 dereferenceable(96) %this, float noundef %radius, float noundef %height) unnamed_addr #0 align 2 personality ptr @__gxx_personality_v0 {
invoke.cont:
  tail call void @_ZN21btConvexInternalShapeC2Ev(ptr noundef nonnull align 8 dereferenceable(72) %this)
  store ptr getelementptr inbounds ({ [25 x ptr] }, ptr @_ZTV11btConeShape, i64 0, i32 0, i64 2), ptr %this, align 8
  %m_radius = getelementptr inbounds i8, ptr %this, i64 76
  store float %radius, ptr %m_radius, align 4
  %m_height = getelementptr inbounds i8, ptr %this, i64 80
  store float %height, ptr %m_height, align 8
  %m_shapeType = getelementptr inbounds i8, ptr %this, i64 8
  store i32 11, ptr %m_shapeType, align 8
  %m_coneIndices20.phi.trans.insert.i = getelementptr inbounds i8, ptr %this, i64 84
  store i32 0, ptr %m_coneIndices20.phi.trans.insert.i, align 4
  %arrayidx10.i = getelementptr inbounds i8, ptr %this, i64 88
  store i32 1, ptr %arrayidx10.i, align 8
  %arrayidx12.i = getelementptr inbounds i8, ptr %this, i64 92
  store i32 2, ptr %arrayidx12.i, align 4
  %m_implicitShapeDimensions.i = getelementptr inbounds i8, ptr %this, i64 48
  store float %radius, ptr %m_implicitShapeDimensions.i, align 8
  %arrayidx28.i = getelementptr inbounds i8, ptr %this, i64 52
  store float %height, ptr %arrayidx28.i, align 4
  %arrayidx35.i = getelementptr inbounds i8, ptr %this, i64 56
  store float %radius, ptr %arrayidx35.i, align 8
  %mul8 = fmul float %height, %height
  %0 = tail call float @llvm.fmuladd.f32(float %radius, float %radius, float %mul8)
  %sqrt = tail call float @llvm.sqrt.f32(float %0)
  %div = fdiv float %radius, %sqrt
  %m_sinAngle = getelementptr inbounds i8, ptr %this, i64 72
  store float %div, ptr %m_sinAngle, align 8
  ret void
}